; ModuleID = '38/1439.c'
source_filename = "38/1439.c"
target datalayout = "e-m:e-p270:32:32-p271:32:32-p272:64:64-i64:64-f80:128-n8:16:32:64-S128"
target triple = "x86_64-pc-linux-gnu"

@.str = private unnamed_addr constant [3 x i8] c"%d\00", align 1
@.str.1 = private unnamed_addr constant [4 x i8] c"%lf\00", align 1
@.str.2 = private unnamed_addr constant [7 x i8] c"%.5lf\0A\00", align 1

; Function Attrs: noinline nounwind uwtable
define dso_local void @main() #0 {
  %1 = alloca i32, align 4
  %2 = alloca i32, align 4
  %3 = alloca i32, align 4
  %4 = alloca i32, align 4
  %5 = alloca double, align 8
  %6 = alloca [1000 x double], align 16
  %7 = alloca double, align 8
  %8 = alloca double, align 8
  %9 = alloca double, align 8
  %10 = alloca double*, align 8
  %11 = alloca double*, align 8
  %12 = bitcast [1000 x double]* %6 to i8*
  call void @llvm.memset.p0i8.i64(i8* align 16 %12, i8 0, i64 8000, i1 false)
  %13 = call i32 (i8*, ...) @__isoc99_scanf(i8* getelementptr inbounds ([3 x i8], [3 x i8]* @.str, i64 0, i64 0), i32* %1)
  store i32 0, i32* %2, align 4
  br label %14

14:                                               ; preds = %90, %0
  %15 = load i32, i32* %2, align 4
  %16 = load i32, i32* %1, align 4
  %17 = icmp slt i32 %15, %16
  br i1 %17, label %18, label %93

18:                                               ; preds = %14
  %19 = call i32 (i8*, ...) @__isoc99_scanf(i8* getelementptr inbounds ([3 x i8], [3 x i8]* @.str, i64 0, i64 0), i32* %3)
  store i32 0, i32* %4, align 4
  br label %20

20:                                               ; preds = %29, %18
  %21 = load i32, i32* %4, align 4
  %22 = load i32, i32* %3, align 4
  %23 = icmp slt i32 %21, %22
  br i1 %23, label %24, label %32

24:                                               ; preds = %20
  %25 = load i32, i32* %4, align 4
  %26 = sext i32 %25 to i64
  %27 = getelementptr inbounds [1000 x double], [1000 x double]* %6, i64 0, i64 %26
  %28 = call i32 (i8*, ...) @__isoc99_scanf(i8* getelementptr inbounds ([4 x i8], [4 x i8]* @.str.1, i64 0, i64 0), double* %27)
  br label %29

29:                                               ; preds = %24
  %30 = load i32, i32* %4, align 4
  %31 = add nsw i32 %30, 1
  store i32 %31, i32* %4, align 4
  br label %20

32:                                               ; preds = %20
  %33 = getelementptr inbounds [1000 x double], [1000 x double]* %6, i64 0, i64 0
  store double* %33, double** %10, align 8
  %34 = load double*, double** %10, align 8
  %35 = load double, double* %34, align 8
  store double %35, double* %9, align 8
  %36 = load double*, double** %10, align 8
  %37 = getelementptr inbounds double, double* %36, i32 1
  store double* %37, double** %10, align 8
  store i32 1, i32* %4, align 4
  br label %38

38:                                               ; preds = %49, %32
  %39 = load i32, i32* %4, align 4
  %40 = load i32, i32* %3, align 4
  %41 = icmp slt i32 %39, %40
  br i1 %41, label %42, label %52

42:                                               ; preds = %38
  %43 = load double, double* %9, align 8
  %44 = load double*, double** %10, align 8
  %45 = load double, double* %44, align 8
  %46 = fadd double %43, %45
  store double %46, double* %9, align 8
  %47 = load double*, double** %10, align 8
  %48 = getelementptr inbounds double, double* %47, i32 1
  store double* %48, double** %10, align 8
  br label %49

49:                                               ; preds = %42
  %50 = load i32, i32* %4, align 4
  %51 = add nsw i32 %50, 1
  store i32 %51, i32* %4, align 4
  br label %38

52:                                               ; preds = %38
  %53 = load double, double* %9, align 8
  %54 = load i32, i32* %3, align 4
  %55 = sitofp i32 %54 to double
  %56 = fdiv double %53, %55
  store double %56, double* %7, align 8
  %57 = getelementptr inbounds [1000 x double], [1000 x double]* %6, i64 0, i64 0
  store double* %57, double** %11, align 8
  %58 = load double*, double** %11, align 8
  %59 = load double, double* %58, align 8
  %60 = load double, double* %7, align 8
  %61 = fsub double %59, %60
  %62 = call double @pow(double %61, double 2.000000e+00) #4
  store double %62, double* %8, align 8
  %63 = load double*, double** %11, align 8
  %64 = getelementptr inbounds double, double* %63, i32 1
  store double* %64, double** %11, align 8
  store i32 1, i32* %4, align 4
  br label %65

65:                                               ; preds = %79, %52
  %66 = load i32, i32* %4, align 4
  %67 = load i32, i32* %3, align 4
  %68 = icmp slt i32 %66, %67
  br i1 %68, label %69, label %82

69:                                               ; preds = %65
  %70 = load double, double* %8, align 8
  %71 = load double*, double** %11, align 8
  %72 = load double, double* %71, align 8
  %73 = load double, double* %7, align 8
  %74 = fsub double %72, %73
  %75 = call double @pow(double %74, double 2.000000e+00) #4
  %76 = fadd double %70, %75
  store double %76, double* %8, align 8
  %77 = load double*, double** %11, align 8
  %78 = getelementptr inbounds double, double* %77, i32 1
  store double* %78, double** %11, align 8
  br label %79

79:                                               ; preds = %69
  %80 = load i32, i32* %4, align 4
  %81 = add nsw i32 %80, 1
  store i32 %81, i32* %4, align 4
  br label %65

82:                                               ; preds = %65
  %83 = load double, double* %8, align 8
  %84 = load i32, i32* %3, align 4
  %85 = sitofp i32 %84 to double
  %86 = fdiv double %83, %85
  %87 = call double @sqrt(double %86) #4
  store double %87, double* %5, align 8
  %88 = load double, double* %5, align 8
  %89 = call i32 (i8*, ...) @printf(i8* getelementptr inbounds ([7 x i8], [7 x i8]* @.str.2, i64 0, i64 0), double %88)
  br label %90

90:                                               ; preds = %82
  %91 = load i32, i32* %2, align 4
  %92 = add nsw i32 %91, 1
  store i32 %92, i32* %2, align 4
  br label %14

93:                                               ; preds = %14
  ret void
}

; Function Attrs: argmemonly nounwind willreturn
declare void @llvm.memset.p0i8.i64(i8* nocapture writeonly, i8, i64, i1 immarg) #1

declare dso_local i32 @__isoc99_scanf(i8*, ...) #2

; Function Attrs: nounwind
declare dso_local double @pow(double, double) #3

; Function Attrs: nounwind
declare dso_local double @sqrt(double) #3

declare dso_local i32 @printf(i8*, ...) #2


!llvm.module.flags = !{!0}
!llvm.ident = !{!1}

!0 = !{i32 1, !"wchar_size", i32 4}
!1 = !{!"clang version 10.0.0-4ubuntu1 "}
